target datalayout = "e-m:e-p270:32:32-p271:32:32-p272:64:64-i64:64-i128:128-f80:128-n8:16:32:64-S128"
target triple = "x86_64-pc-linux-gnu"

%struct.expert_field = type { i32, i32 }

@ei_gsm_a_gm_undecoded = internal global %struct.expert_field zeroinitializer, align 4
@lte_rrc_ue_eutra_cap_handle = internal global ptr null, align 8
@.str.1086 = private unnamed_addr constant [54 x i8] c"E-UTRAN Inter RAT information container - Not decoded\00", align 1

; Function Attrs: null_pointer_is_valid sspstrong uwtable
define internal zeroext i16 @de_gmm_eutran_irat_info_container(ptr noundef %0, ptr noundef %1, ptr noundef %2, i32 noundef %3, i32 noundef %4, ptr noundef %5, i32 noundef %6) #1 {
  %8 = alloca ptr, align 8
  %9 = alloca ptr, align 8
  %10 = alloca ptr, align 8
  %11 = alloca i32, align 4
  %12 = alloca i32, align 4
  %13 = alloca ptr, align 8
  %14 = alloca i32, align 4
  %15 = alloca i32, align 4
  %16 = alloca ptr, align 8
  store ptr %0, ptr %8, align 8
  store ptr %1, ptr %9, align 8
  store ptr %2, ptr %10, align 8
  store i32 %3, ptr %11, align 4
  store i32 %4, ptr %12, align 4
  store ptr %5, ptr %13, align 8
  store i32 %6, ptr %14, align 4
  call void @llvm.lifetime.start.p0(i64 4, ptr %15) #6
  call void @llvm.lifetime.start.p0(i64 8, ptr %16) #6
  %17 = load i32, ptr %11, align 4
  store i32 %17, ptr %15, align 4
  %18 = load ptr, ptr %8, align 8
  %19 = load i32, ptr %15, align 4
  %20 = load i32, ptr %12, align 4
  %21 = call ptr @tvb_new_subset_length(ptr noundef %18, i32 noundef %19, i32 noundef %20)
  store ptr %21, ptr %16, align 8
  %22 = load ptr, ptr @lte_rrc_ue_eutra_cap_handle, align 8
  %23 = icmp ne ptr %22, null
  br i1 %23, label %24, label %30

24:                                               ; preds = %7
  %25 = load ptr, ptr @lte_rrc_ue_eutra_cap_handle, align 8
  %26 = load ptr, ptr %16, align 8
  %27 = load ptr, ptr %10, align 8
  %28 = load ptr, ptr %9, align 8
  %29 = call i32 @call_dissector(ptr noundef %25, ptr noundef %26, ptr noundef %27, ptr noundef %28)
  br label %37

30:                                               ; preds = %7
  %31 = load ptr, ptr %9, align 8
  %32 = load ptr, ptr %10, align 8
  %33 = load ptr, ptr %8, align 8
  %34 = load i32, ptr %15, align 4
  %35 = load i32, ptr %12, align 4
  %36 = call ptr (ptr, ptr, ptr, ptr, i32, i32, ptr, ...) @proto_tree_add_expert_format(ptr noundef %31, ptr noundef %32, ptr noundef @ei_gsm_a_gm_undecoded, ptr noundef %33, i32 noundef %34, i32 noundef %35, ptr noundef @.str.1086)
  br label %37

37:                                               ; preds = %30, %24
  %38 = load i32, ptr %12, align 4
  %39 = trunc i32 %38 to i16
  call void @llvm.lifetime.end.p0(i64 8, ptr %16) #6
  call void @llvm.lifetime.end.p0(i64 4, ptr %15) #6
  ret i16 %39
}