; Function Attrs: null_pointer_is_valid sspstrong uwtable
define internal noundef zeroext i16 @de_gmm_eutran_irat_info_container(ptr noundef %0, ptr noundef %1, ptr noundef %2, i32 noundef %3, i32 noundef %4, ptr readnone captures(none) %5, i32 %6) #1 {
  %8 = tail call ptr @tvb_new_subset_length(ptr noundef %0, i32 noundef %3, i32 noundef %4)
  %9 = load ptr, ptr @lte_rrc_ue_eutra_cap_handle, align 8
  %.not = icmp eq ptr %9, null
  br i1 %.not, label %12, label %10

10:                                               ; preds = %7
  %11 = tail call i32 @call_dissector(ptr noundef nonnull %9, ptr noundef %8, ptr noundef %2, ptr noundef %1)
  br label %14

12:                                               ; preds = %7
  %13 = tail call ptr (ptr, ptr, ptr, ptr, i32, i32, ptr, ...) @proto_tree_add_expert_format(ptr noundef %1, ptr noundef %2, ptr noundef nonnull @ei_gsm_a_gm_undecoded, ptr noundef %0, i32 noundef %3, i32 noundef %4, ptr noundef nonnull @.str.1086)
  br label %14

14:                                               ; preds = %12, %10
  %15 = trunc i32 %4 to i16
  ret i16 %15
}